target datalayout = "e-m:e-p270:32:32-p271:32:32-p272:64:64-i64:64-i128:128-f80:128-n8:16:32:64-S128"
target triple = "x86_64-pc-linux-gnu"

%struct._ref_time_frame_info = type { ptr, i64, %struct.nstime_t, i32 }
%struct.nstime_t = type { i64, i32 }
%struct._packet_info = type { ptr, ptr, i32, i32, %struct.nstime_t, %struct.nstime_t, %struct.nstime_t, i8, ptr, ptr, ptr, ptr, %struct._address, %struct._address, %struct._address, %struct._address, %struct._address, %struct._address, i32, ptr, i8, [3 x i8], %struct.anon, i32, i32, i32, i32, ptr, i8, ptr, ptr, i16, i16, i32, i32, i16, i32, i32, ptr, ptr, ptr, i8, i8, i16, i16, i16, i32, i16, i16, ptr, ptr, ptr, ptr, ptr, i32, i32 }
%struct._address = type { i32, i32, ptr, ptr }
%struct.anon = type { i8, [3 x i8] }
%struct._frame_data = type <{ i32, i32, i32, i32, i32, [4 x i8], i64, ptr, ptr, ptr, i8, i16, [5 x i8], %struct.nstime_t, %struct.nstime_t, i32, i32 }>

@ref_time_frame = internal global %struct._ref_time_frame_info zeroinitializer, align 8

; Function Attrs: null_pointer_is_valid sspstrong uwtable
define internal void @modify_times(ptr noundef %0, i32 noundef %1, ptr noundef %2) #0 {
  %4 = alloca ptr, align 8
  %5 = alloca i32, align 4
  %6 = alloca ptr, align 8
  %7 = alloca i64, align 8
  %8 = alloca i64, align 8
  %9 = alloca %struct.nstime_t, align 8
  %10 = alloca %struct.nstime_t, align 8
  store ptr %0, ptr %4, align 8
  store i32 %1, ptr %5, align 4
  store ptr %2, ptr %6, align 8
  %11 = load ptr, ptr @ref_time_frame, align 8
  %12 = icmp eq ptr %11, null
  br i1 %12, label %13, label %26

13:                                               ; preds = %3
  %14 = load ptr, ptr %4, align 8
  %15 = load i32, ptr %5, align 4
  %16 = add i32 %15, 8
  %17 = call i64 @tvb_get_letoh64(ptr noundef %14, i32 noundef %16)
  store i64 %17, ptr getelementptr inbounds nuw (%struct._ref_time_frame_info, ptr @ref_time_frame, i32 0, i32 1), align 8
  %18 = load ptr, ptr %6, align 8
  %19 = getelementptr inbounds nuw %struct._packet_info, ptr %18, i32 0, i32 8
  %20 = load ptr, ptr %19, align 8
  store ptr %20, ptr @ref_time_frame, align 8
  %21 = load ptr, ptr %6, align 8
  %22 = getelementptr inbounds nuw %struct._packet_info, ptr %21, i32 0, i32 3
  %23 = load i32, ptr %22, align 4
  store i32 %23, ptr getelementptr inbounds nuw (%struct._ref_time_frame_info, ptr @ref_time_frame, i32 0, i32 3), align 8
  %24 = load ptr, ptr %6, align 8
  %25 = getelementptr inbounds nuw %struct._packet_info, ptr %24, i32 0, i32 4
  call void @llvm.memcpy.p0.p0.i64(ptr align 8 getelementptr inbounds nuw (%struct._ref_time_frame_info, ptr @ref_time_frame, i32 0, i32 2), ptr align 8 %25, i64 16, i1 false)
  br label %82

26:                                               ; preds = %3
  %27 = load ptr, ptr %6, align 8
  %28 = getelementptr inbounds nuw %struct._packet_info, ptr %27, i32 0, i32 8
  %29 = load ptr, ptr %28, align 8
  %30 = getelementptr inbounds nuw %struct._frame_data, ptr %29, i32 0, i32 11
  %31 = load i16, ptr %30, align 1
  %32 = lshr i16 %31, 3
  %33 = and i16 %32, 1
  %34 = zext i16 %33 to i32
  %35 = icmp ne i32 %34, 0
  br i1 %35, label %81, label %36

36:                                               ; preds = %26
  call void @llvm.lifetime.start.p0(i64 8, ptr %7) #5
  %37 = load ptr, ptr %4, align 8
  %38 = load i32, ptr %5, align 4
  %39 = add i32 %38, 8
  %40 = call i64 @tvb_get_letoh64(ptr noundef %37, i32 noundef %39)
  %41 = load i64, ptr getelementptr inbounds nuw (%struct._ref_time_frame_info, ptr @ref_time_frame, i32 0, i32 1), align 8
  %42 = sub i64 %40, %41
  store i64 %42, ptr %7, align 8
  call void @llvm.lifetime.start.p0(i64 8, ptr %8) #5
  %43 = load i64, ptr %7, align 8
  %44 = udiv i64 %43, 1000000000
  store i64 %44, ptr %8, align 8
  call void @llvm.lifetime.start.p0(i64 16, ptr %9) #5
  call void @llvm.lifetime.start.p0(i64 16, ptr %10) #5
  %45 = load i32, ptr getelementptr inbounds nuw (%struct.nstime_t, ptr getelementptr inbounds nuw (%struct._ref_time_frame_info, ptr @ref_time_frame, i32 0, i32 2), i32 0, i32 1), align 8
  %46 = load i64, ptr %7, align 8
  %47 = load i64, ptr %8, align 8
  %48 = mul i64 %47, 1000000000
  %49 = sub i64 %46, %48
  %50 = trunc i64 %49 to i32
  %51 = add i32 %45, %50
  %52 = getelementptr inbounds nuw %struct.nstime_t, ptr %9, i32 0, i32 1
  store i32 %51, ptr %52, align 8
  %53 = getelementptr inbounds nuw %struct.nstime_t, ptr %9, i32 0, i32 1
  %54 = load i32, ptr %53, align 8
  %55 = icmp sgt i32 %54, 1000000000
  br i1 %55, label %56, label %62

56:                                               ; preds = %36
  %57 = getelementptr inbounds nuw %struct.nstime_t, ptr %9, i32 0, i32 1
  %58 = load i32, ptr %57, align 8
  %59 = sub i32 %58, 1000000000
  store i32 %59, ptr %57, align 8
  %60 = load i64, ptr %8, align 8
  %61 = add i64 %60, 1
  store i64 %61, ptr %8, align 8
  br label %62

62:                                               ; preds = %56, %36
  %63 = load i64, ptr getelementptr inbounds nuw (%struct._ref_time_frame_info, ptr @ref_time_frame, i32 0, i32 2), align 8
  %64 = load i64, ptr %8, align 8
  %65 = trunc i64 %64 to i32
  %66 = sext i32 %65 to i64
  %67 = add i64 %63, %66
  %68 = getelementptr inbounds nuw %struct.nstime_t, ptr %9, i32 0, i32 0
  store i64 %67, ptr %68, align 8
  %69 = load ptr, ptr %6, align 8
  %70 = getelementptr inbounds nuw %struct._packet_info, ptr %69, i32 0, i32 4
  call void @nstime_delta(ptr noundef %10, ptr noundef %9, ptr noundef %70)
  %71 = load ptr, ptr %6, align 8
  %72 = getelementptr inbounds nuw %struct._packet_info, ptr %71, i32 0, i32 4
  call void @llvm.memcpy.p0.p0.i64(ptr align 8 %72, ptr align 8 %9, i64 16, i1 false)
  %73 = load ptr, ptr %6, align 8
  %74 = getelementptr inbounds nuw %struct._packet_info, ptr %73, i32 0, i32 8
  %75 = load ptr, ptr %74, align 8
  %76 = getelementptr inbounds nuw %struct._frame_data, ptr %75, i32 0, i32 13
  call void @llvm.memcpy.p0.p0.i64(ptr align 8 %76, ptr align 8 %9, i64 16, i1 false)
  %77 = load ptr, ptr %6, align 8
  %78 = getelementptr inbounds nuw %struct._packet_info, ptr %77, i32 0, i32 5
  %79 = load ptr, ptr %6, align 8
  %80 = getelementptr inbounds nuw %struct._packet_info, ptr %79, i32 0, i32 5
  call void @nstime_sum(ptr noundef %78, ptr noundef %80, ptr noundef %10)
  call void @llvm.lifetime.end.p0(i64 16, ptr %10) #5
  call void @llvm.lifetime.end.p0(i64 16, ptr %9) #5
  call void @llvm.lifetime.end.p0(i64 8, ptr %8) #5
  call void @llvm.lifetime.end.p0(i64 8, ptr %7) #5
  br label %81

81:                                               ; preds = %62, %26
  br label %82

82:                                               ; preds = %81, %13
  ret void
}