; Function Attrs: null_pointer_is_valid sspstrong uwtable
define internal fastcc void @modify_times(ptr noundef %0, i32 noundef range(i32 0, -16) %1, ptr noundef %2) unnamed_addr #0 {
  %4 = alloca %struct.nstime_t, align 8
  %5 = alloca %struct.nstime_t, align 8
  %6 = load ptr, ptr @ref_time_frame, align 8
  %7 = icmp eq ptr %6, null
  br i1 %7, label %8, label %16

8:                                                ; preds = %3
  %9 = add nuw i32 %1, 8
  %10 = tail call i64 @tvb_get_letoh64(ptr noundef %0, i32 noundef %9)
  store i64 %10, ptr getelementptr inbounds nuw (i8, ptr @ref_time_frame, i64 8), align 8
  %11 = getelementptr inbounds nuw i8, ptr %2, i64 80
  %12 = load ptr, ptr %11, align 8
  store ptr %12, ptr @ref_time_frame, align 8
  %13 = getelementptr inbounds nuw i8, ptr %2, i64 20
  %14 = load i32, ptr %13, align 4
  store i32 %14, ptr getelementptr inbounds nuw (i8, ptr @ref_time_frame, i64 32), align 8
  %15 = getelementptr inbounds nuw i8, ptr %2, i64 24
  tail call void @llvm.memcpy.p0.p0.i64(ptr noundef nonnull align 8 dereferenceable(16) getelementptr inbounds nuw (i8, ptr @ref_time_frame, i64 16), ptr noundef nonnull align 8 dereferenceable(16) %15, i64 16, i1 false)
  br label %45

16:                                               ; preds = %3
  %17 = getelementptr inbounds nuw i8, ptr %2, i64 80
  %18 = load ptr, ptr %17, align 8
  %19 = getelementptr inbounds nuw i8, ptr %18, i64 57
  %20 = load i16, ptr %19, align 1
  %21 = and i16 %20, 8
  %.not = icmp eq i16 %21, 0
  br i1 %.not, label %22, label %45

22:                                               ; preds = %16
  %23 = add nuw i32 %1, 8
  %24 = tail call i64 @tvb_get_letoh64(ptr noundef %0, i32 noundef %23)
  %25 = load i64, ptr getelementptr inbounds nuw (i8, ptr @ref_time_frame, i64 8), align 8
  %26 = sub i64 %24, %25
  %27 = udiv i64 %26, 1000000000
  call void @llvm.lifetime.start.p0(i64 16, ptr nonnull %4) #4
  call void @llvm.lifetime.start.p0(i64 16, ptr nonnull %5) #4
  %28 = load i32, ptr getelementptr inbounds nuw (i8, ptr @ref_time_frame, i64 24), align 8
  %.neg = mul i64 %27, 3294967296
  %29 = add i64 %.neg, %26
  %30 = trunc i64 %29 to i32
  %31 = add i32 %28, %30
  %32 = getelementptr inbounds nuw i8, ptr %4, i64 8
  store i32 %31, ptr %32, align 8
  %33 = icmp sgt i32 %31, 1000000000
  br i1 %33, label %34, label %37

34:                                               ; preds = %22
  %35 = add nsw i32 %31, -1000000000
  store i32 %35, ptr %32, align 8
  %36 = add nuw nsw i64 %27, 1
  br label %37

37:                                               ; preds = %34, %22
  %.0 = phi i64 [ %36, %34 ], [ %27, %22 ]
  %38 = load i64, ptr getelementptr inbounds nuw (i8, ptr @ref_time_frame, i64 16), align 8
  %sext = shl i64 %.0, 32
  %39 = ashr exact i64 %sext, 32
  %40 = add i64 %39, %38
  store i64 %40, ptr %4, align 8
  %41 = getelementptr inbounds nuw i8, ptr %2, i64 24
  call void @nstime_delta(ptr noundef nonnull %5, ptr noundef nonnull %4, ptr noundef nonnull %41)
  call void @llvm.memcpy.p0.p0.i64(ptr noundef nonnull align 8 dereferenceable(16) %41, ptr noundef nonnull align 8 dereferenceable(16) %4, i64 16, i1 false)
  %42 = load ptr, ptr %17, align 8
  %43 = getelementptr inbounds nuw i8, ptr %42, i64 64
  call void @llvm.memcpy.p0.p0.i64(ptr noundef nonnull align 8 dereferenceable(16) %43, ptr noundef nonnull align 8 dereferenceable(16) %4, i64 16, i1 false)
  %44 = getelementptr inbounds nuw i8, ptr %2, i64 40
  call void @nstime_sum(ptr noundef nonnull %44, ptr noundef nonnull %44, ptr noundef nonnull %5)
  call void @llvm.lifetime.end.p0(i64 16, ptr nonnull %5) #4
  call void @llvm.lifetime.end.p0(i64 16, ptr nonnull %4) #4
  br label %45

45:                                               ; preds = %16, %37, %8
  ret void
}